; Function Attrs: nounwind uwtable
define noalias nonnull ptr @l_Lean_KeyedDeclsAttribute_instInhabitedDef___lambda__1(i8 noundef zeroext %0, ptr noundef readnone captures(none) %1, ptr noundef readnone captures(none) %2, ptr noundef readnone captures(none) %3, ptr noundef %4) local_unnamed_addr #1 {
  %6 = load ptr, ptr @l_Lean_KeyedDeclsAttribute_instInhabitedDef___lambda__1___closed__2, align 8, !tbaa !9
  tail call void @lean_inc_heartbeat() #6
  %7 = tail call noalias ptr @mi_malloc_small(i64 noundef 24) #6
  %8 = icmp eq ptr %7, null
  br i1 %8, label %9, label %lean_alloc_ctor.exit

9:                                                ; preds = %5
  tail call void @lean_internal_panic_out_of_memory() #7
  unreachable

lean_alloc_ctor.exit:                             ; preds = %5
  %10 = getelementptr inbounds nuw i8, ptr %7, i64 4
  store i32 1, ptr %7, align 4, !tbaa !4
  store i32 16908312, ptr %10, align 4
  %11 = getelementptr inbounds nuw i8, ptr %7, i64 8
  store ptr %6, ptr %11, align 8, !tbaa !9
  %12 = getelementptr inbounds nuw i8, ptr %7, i64 16
  store ptr %4, ptr %12, align 8, !tbaa !9
  ret ptr %7
}